; Function Attrs: nounwind uwtable
define ptr @l_forall__prop__decidable___rarg(i8 noundef zeroext %0, ptr noundef %1) local_unnamed_addr #0 {
  %3 = icmp eq i8 %0, 0
  br i1 %3, label %4, label %14

4:                                                ; preds = %2
  %5 = ptrtoint ptr %1 to i64
  %6 = and i64 %5, 1
  %.not = icmp eq i64 %6, 0
  br i1 %.not, label %7, label %lean_dec.exit

7:                                                ; preds = %4
  %8 = load i32, ptr %1, align 4, !tbaa !4
  %9 = icmp sgt i32 %8, 1
  br i1 %9, label %10, label %12, !prof !9

10:                                               ; preds = %7
  %11 = add nsw i32 %8, -1
  store i32 %11, ptr %1, align 4, !tbaa !4
  br label %lean_dec.exit

12:                                               ; preds = %7
  %.not.i = icmp eq i32 %8, 0
  br i1 %.not.i, label %lean_dec.exit, label %13

13:                                               ; preds = %12
  tail call void @lean_dec_ref_cold(ptr noundef nonnull %1) #4
  br label %lean_dec.exit

14:                                               ; preds = %2
  %15 = tail call ptr @lean_apply_1(ptr noundef %1, ptr noundef nonnull inttoptr (i64 1 to ptr)) #4
  br label %lean_dec.exit

lean_dec.exit:                                    ; preds = %4, %10, %12, %13, %14
  %.0 = phi ptr [ %15, %14 ], [ inttoptr (i64 3 to ptr), %13 ], [ inttoptr (i64 3 to ptr), %12 ], [ inttoptr (i64 3 to ptr), %10 ], [ inttoptr (i64 3 to ptr), %4 ]
  ret ptr %.0
}